target datalayout = "e-m:e-p270:32:32-p271:32:32-p272:64:64-i64:64-i128:128-f80:128-n8:16:32:64-S128"
target triple = "x86_64-pc-linux-gnu"

%struct.NTarjan = type { ptr, i32, i32, ptr, ptr, ptr, ptr, ptr, ptr, ptr, ptr }

; Function Attrs: mustprogress nounwind uwtable
define hidden noundef ptr @_ZN7NTarjan4EVALEv(ptr noundef nonnull align 8 dereferenceable(80) %0) #1 align 2 {
  %2 = alloca ptr, align 8
  %3 = alloca ptr, align 8
  store ptr %0, ptr %3, align 8
  %4 = load ptr, ptr %3, align 8
  %5 = getelementptr inbounds %struct.NTarjan, ptr %4, i32 0, i32 5
  %6 = load ptr, ptr %5, align 8
  %7 = icmp ne ptr %6, null
  br i1 %7, label %11, label %8

8:                                                ; preds = %1
  %9 = getelementptr inbounds %struct.NTarjan, ptr %4, i32 0, i32 4
  %10 = load ptr, ptr %9, align 8
  store ptr %10, ptr %2, align 8
  br label %33

11:                                               ; preds = %1
  call void @_ZN7NTarjan8COMPRESSEv(ptr noundef nonnull align 8 dereferenceable(80) %4)
  %12 = getelementptr inbounds %struct.NTarjan, ptr %4, i32 0, i32 5
  %13 = load ptr, ptr %12, align 8
  %14 = getelementptr inbounds %struct.NTarjan, ptr %13, i32 0, i32 4
  %15 = load ptr, ptr %14, align 8
  %16 = getelementptr inbounds %struct.NTarjan, ptr %15, i32 0, i32 1
  %17 = load i32, ptr %16, align 8
  %18 = getelementptr inbounds %struct.NTarjan, ptr %4, i32 0, i32 4
  %19 = load ptr, ptr %18, align 8
  %20 = getelementptr inbounds %struct.NTarjan, ptr %19, i32 0, i32 1
  %21 = load i32, ptr %20, align 8
  %22 = icmp uge i32 %17, %21
  br i1 %22, label %23, label %26

23:                                               ; preds = %11
  %24 = getelementptr inbounds %struct.NTarjan, ptr %4, i32 0, i32 4
  %25 = load ptr, ptr %24, align 8
  br label %31

26:                                               ; preds = %11
  %27 = getelementptr inbounds %struct.NTarjan, ptr %4, i32 0, i32 5
  %28 = load ptr, ptr %27, align 8
  %29 = getelementptr inbounds %struct.NTarjan, ptr %28, i32 0, i32 4
  %30 = load ptr, ptr %29, align 8
  br label %31

31:                                               ; preds = %26, %23
  %32 = phi ptr [ %25, %23 ], [ %30, %26 ]
  store ptr %32, ptr %2, align 8
  br label %33

33:                                               ; preds = %31, %8
  %34 = load ptr, ptr %2, align 8
  ret ptr %34
}