; Function Attrs: mustprogress nofree nosync nounwind memory(readwrite, inaccessiblemem: none) uwtable
define hidden noundef ptr @_ZN7NTarjan4EVALEv(ptr nocapture noundef nonnull align 8 dereferenceable(80) %0) local_unnamed_addr #2 align 2 {
  %2 = getelementptr inbounds i8, ptr %0, i64 32
  %3 = load ptr, ptr %2, align 8
  %.not = icmp eq ptr %3, null
  br i1 %.not, label %4, label %7

4:                                                ; preds = %1
  %5 = getelementptr inbounds i8, ptr %0, i64 24
  %6 = load ptr, ptr %5, align 8
  br label %17

7:                                                ; preds = %1
  tail call void @_ZN7NTarjan8COMPRESSEv(ptr noundef nonnull align 8 dereferenceable(80) %0)
  %8 = load ptr, ptr %2, align 8
  %9 = getelementptr inbounds i8, ptr %8, i64 24
  %10 = load ptr, ptr %9, align 8
  %11 = getelementptr inbounds i8, ptr %10, i64 8
  %12 = load i32, ptr %11, align 8
  %13 = getelementptr inbounds i8, ptr %0, i64 24
  %14 = load ptr, ptr %13, align 8
  %15 = getelementptr inbounds i8, ptr %14, i64 8
  %16 = load i32, ptr %15, align 8
  %.not2 = icmp ult i32 %12, %16
  %. = select i1 %.not2, ptr %10, ptr %14
  br label %17

17:                                               ; preds = %7, %4
  %.0 = phi ptr [ %., %7 ], [ %6, %4 ]
  ret ptr %.0
}